(dp1
S'file_suffix'
p2
S'RCN'
p3
sS'task_stop_threshold'
p4
F0.5
sS'scale_mul'
p5
F0.5
sS'L2_coef_ful'
p6
F1e-08
sS'sw'
p7
I-1
sS'use_ada_delta'
p8
I01
sS'cost'
p9
S'cost_kpt'
p10
sS'num_model_kpts'
p11
I68
sS'target_dim'
p12
I80
sS'num_epochs'
p13
I4000
sS'param_path'
p14
S''
sS'sliding_window_lenght'
p15
I200
sS'concat_pool_locations'
p16
I00
sS'bilinear'
p17
I00
sS'block_img'
p18
I01
sS'rotation'
p19
I20
sS'train_all_kpts'
p20
I00
sS'decay'
p21
F0.94999999999999996
sS'use_lcn'
p22
I01
sS'param_path_strucNet'
p23
S''
sS'load_no_output_params'
p24
I00
sS'only_49_kpts'
p25
I00
sS'fixed_block'
p26
I00
sS'conv_per_kpt'
p27
I00
sS'learning_rate'
p28
F0.0030000000000000001
sS'zero_non_pooled'
p29
I01
sS'weight_per_pixel'
p30
I00
sS'extra_fine'
p31
I00
sS'coarse_conv_size'
p32
I3
sS'learn_upsampling'
p33
I01
sS'param_path_cfNet'
p34
S''
sS'conv_size'
p35
I45
sS'dropout'
p36
I00
sS'nMaps_shuffled'
p37
I35
sS'batch_size'
p38
I64
sS'param_seed'
p39
I54621
sS'dist_ratio'
p40
F1.3
sS'denoise_conv'
p41
F0
sS'L2_coef_out'
p42
NsS'only_fine_tune_struc'
p43
I00
sS'gray_scale'
p44
I01
sS'linear_conv_per_kpt'
p45
I00
sS'Lambda'
p46
S'1.0'
p47
sS'dropout_kpts'
p48
I00
sS'all_train'
p49
I00
sS'translate_mul'
p50
F0.5
sS'coarse_mask_branch'
p51
S'1,1,1,1,1'
p52
sS'paral_conv'
p53
F5
sS'use_res_2'
p54
I00
sS'use_res_1'
p55
I00
sS'bch_norm'
p56
I00
sS'large_F_filter'
p57
I00
sS'num_procs'
p58
I2
sS'save_no_output_params'
p59
I00
sS'no_fine_tune_model'
p60
I00
sS'L2_coef'
p61
F1e-10
s.